target datalayout = "e-m:e-p270:32:32-p271:32:32-p272:64:64-i64:64-i128:128-f80:128-n8:16:32:64-S128"
target triple = "x86_64-pc-linux-gnu"

%struct.xlist = type { i32, i32, ptr, ptr, ptr, ptr, %union.pthread_rwlock_t, ptr, ptr, [0 x %struct.listNode] }
%union.pthread_rwlock_t = type { %struct.__pthread_rwlock_arch_t }
%struct.__pthread_rwlock_arch_t = type { i32, i32, i32, i32, i32, i32, i32, i32, i8, [7 x i8], i64, i32 }
%struct.listNode = type { ptr, ptr }

@.str.3 = private unnamed_addr constant [32 x i8] c"%s: pthread_rwlock_unlock(): %m\00", align 1
@.str.5 = private unnamed_addr constant [32 x i8] c"%s: pthread_rwlock_rdlock(): %m\00", align 1
@__func__.list_count = private unnamed_addr constant [11 x i8] c"list_count\00", align 1

; Function Attrs: nounwind uwtable
define dso_local i32 @list_count(ptr noundef %0) #0 {
  %2 = alloca i32, align 4
  %3 = alloca ptr, align 8
  %4 = alloca i32, align 4
  %5 = alloca i32, align 4
  %6 = alloca i32, align 4
  %7 = alloca i32, align 4
  store ptr %0, ptr %3, align 8
  call void @llvm.lifetime.start.p0(i64 4, ptr %4) #6
  %8 = load ptr, ptr %3, align 8
  %9 = icmp ne ptr %8, null
  br i1 %9, label %11, label %10

10:                                               ; preds = %1
  store i32 0, ptr %2, align 4
  store i32 1, ptr %5, align 4
  br label %40

11:                                               ; preds = %1
  br label %12

12:                                               ; preds = %11
  call void @llvm.lifetime.start.p0(i64 4, ptr %6) #6
  %13 = load ptr, ptr %3, align 8
  %14 = getelementptr inbounds nuw %struct.xlist, ptr %13, i32 0, i32 6
  %15 = call i32 @pthread_rwlock_rdlock(ptr noundef %14) #6
  store i32 %15, ptr %6, align 4
  %16 = load i32, ptr %6, align 4
  %17 = icmp ne i32 %16, 0
  br i1 %17, label %18, label %21

18:                                               ; preds = %12
  %19 = load i32, ptr %6, align 4
  %20 = call ptr @__errno_location() #7
  store i32 %19, ptr %20, align 4
  call void (ptr, ...) @fatal_abort(ptr noundef @.str.5, ptr noundef @__func__.list_count) #8
  unreachable

21:                                               ; preds = %12
  call void @llvm.lifetime.end.p0(i64 4, ptr %6) #6
  br label %22

22:                                               ; preds = %21
  br label %23

23:                                               ; preds = %22
  %24 = load ptr, ptr %3, align 8
  %25 = getelementptr inbounds nuw %struct.xlist, ptr %24, i32 0, i32 1
  %26 = load i32, ptr %25, align 4
  store i32 %26, ptr %4, align 4
  br label %27

27:                                               ; preds = %23
  call void @llvm.lifetime.start.p0(i64 4, ptr %7) #6
  %28 = load ptr, ptr %3, align 8
  %29 = getelementptr inbounds nuw %struct.xlist, ptr %28, i32 0, i32 6
  %30 = call i32 @pthread_rwlock_unlock(ptr noundef %29) #6
  store i32 %30, ptr %7, align 4
  %31 = load i32, ptr %7, align 4
  %32 = icmp ne i32 %31, 0
  br i1 %32, label %33, label %36

33:                                               ; preds = %27
  %34 = load i32, ptr %7, align 4
  %35 = call ptr @__errno_location() #7
  store i32 %34, ptr %35, align 4
  call void (ptr, ...) @fatal_abort(ptr noundef @.str.3, ptr noundef @__func__.list_count) #8
  unreachable

36:                                               ; preds = %27
  call void @llvm.lifetime.end.p0(i64 4, ptr %7) #6
  br label %37

37:                                               ; preds = %36
  br label %38

38:                                               ; preds = %37
  %39 = load i32, ptr %4, align 4
  store i32 %39, ptr %2, align 4
  store i32 1, ptr %5, align 4
  br label %40

40:                                               ; preds = %38, %10
  call void @llvm.lifetime.end.p0(i64 4, ptr %4) #6
  %41 = load i32, ptr %2, align 4
  ret i32 %41
}