; Function Attrs: nounwind uwtable
define dso_local i32 @list_count(ptr noundef %0) #0 {
  %.not = icmp eq ptr %0, null
  br i1 %.not, label %13, label %2

2:                                                ; preds = %1
  %3 = getelementptr inbounds nuw i8, ptr %0, i64 40
  %4 = tail call i32 @pthread_rwlock_rdlock(ptr noundef nonnull %3) #9
  %.not12 = icmp eq i32 %4, 0
  br i1 %.not12, label %7, label %5

5:                                                ; preds = %2
  %6 = tail call ptr @__errno_location() #10
  store i32 %4, ptr %6, align 4
  tail call void (ptr, ...) @fatal_abort(ptr noundef nonnull @.str.5, ptr noundef nonnull @__func__.list_count) #11
  unreachable

7:                                                ; preds = %2
  %8 = getelementptr inbounds nuw i8, ptr %0, i64 4
  %9 = load i32, ptr %8, align 4
  %10 = tail call i32 @pthread_rwlock_unlock(ptr noundef nonnull %3) #9
  %.not13 = icmp eq i32 %10, 0
  br i1 %.not13, label %13, label %11

11:                                               ; preds = %7
  %12 = tail call ptr @__errno_location() #10
  store i32 %10, ptr %12, align 4
  tail call void (ptr, ...) @fatal_abort(ptr noundef nonnull @.str.3, ptr noundef nonnull @__func__.list_count) #11
  unreachable

13:                                               ; preds = %7, %1
  %.0 = phi i32 [ 0, %1 ], [ %9, %7 ]
  ret i32 %.0
}